; Function Attrs: nounwind uwtable
define internal fastcc noundef zeroext i1 @ole2_get_sbat_data_block(ptr nocapture noundef readonly %0, ptr nocapture noundef writeonly %1, i32 noundef %2) unnamed_addr #2 {
  %4 = icmp slt i32 %2, 0
  br i1 %4, label %ole2_read_block.exit, label %5

5:                                                ; preds = %3
  %6 = getelementptr inbounds i8, ptr %0, i64 512
  %7 = load i32, ptr %6, align 8
  %8 = icmp slt i32 %7, 0
  br i1 %8, label %9, label %10

9:                                                ; preds = %5
  tail call void (ptr, ...) @cli_dbgmsg(ptr noundef nonnull @.str.110) #21
  br label %ole2_read_block.exit

10:                                               ; preds = %5
  %11 = getelementptr inbounds i8, ptr %0, i64 30
  %12 = load i16, ptr %11, align 2
  %13 = zext i16 %12 to i32
  %14 = getelementptr inbounds i8, ptr %0, i64 32
  %15 = load i32, ptr %14, align 8
  %16 = sub i32 %13, %15
  %17 = lshr i32 %2, %16
  %.not = icmp eq i32 %17, 0
  br i1 %.not, label %._crit_edge.thread, label %.lr.ph

.lr.ph:                                           ; preds = %10, %.lr.ph
  %.019 = phi i32 [ %18, %.lr.ph ], [ %7, %10 ]
  %.01418 = phi i32 [ %19, %.lr.ph ], [ %17, %10 ]
  %18 = tail call fastcc i32 @ole2_get_next_block_number(ptr noundef %0, i32 noundef %.019)
  %19 = add nsw i32 %.01418, -1
  %20 = icmp ugt i32 %.01418, 1
  br i1 %20, label %.lr.ph, label %._crit_edge

._crit_edge:                                      ; preds = %.lr.ph
  %.pre = load i16, ptr %11, align 2
  %.pre20 = zext i16 %.pre to i32
  %21 = icmp slt i32 %18, 0
  br i1 %21, label %ole2_read_block.exit, label %._crit_edge.thread

._crit_edge.thread:                               ; preds = %10, %._crit_edge
  %.0.lcssa24 = phi i32 [ %18, %._crit_edge ], [ %7, %10 ]
  %22 = phi i16 [ %.pre, %._crit_edge ], [ %12, %10 ]
  %.pre-phi23 = phi i32 [ %.pre20, %._crit_edge ], [ %13, %10 ]
  %23 = shl nuw i32 1, %.pre-phi23
  %24 = sext i32 %23 to i64
  %25 = zext nneg i32 %.0.lcssa24 to i64
  %26 = zext i16 %22 to i64
  %27 = shl i64 %25, %26
  %28 = icmp ult i16 %22, 9
  %.neg.i = shl nsw i64 -1, %26
  %29 = add nsw i64 %.neg.i, 2147483647
  %.neg35.i = select i1 %28, i64 2147483135, i64 %29
  %30 = icmp ult i64 %27, %.neg35.i
  br i1 %30, label %32, label %.thread.i

.thread.i:                                        ; preds = %._crit_edge.thread
  %31 = sub nsw i64 2147483647, %24
  br label %38

32:                                               ; preds = %._crit_edge.thread
  %33 = shl i32 %.0.lcssa24, %.pre-phi23
  %spec.select.i = tail call i32 @llvm.smax.i32(i32 %23, i32 512)
  %34 = add nsw i32 %spec.select.i, %33
  %35 = sext i32 %34 to i64
  %36 = add nsw i64 %35, %24
  %37 = icmp eq i64 %36, 0
  br i1 %37, label %ole2_read_block.exit, label %38

38:                                               ; preds = %32, %.thread.i
  %.02740.i = phi i64 [ 2147483647, %.thread.i ], [ %36, %32 ]
  %.02839.i = phi i64 [ %31, %.thread.i ], [ %35, %32 ]
  %39 = getelementptr inbounds i8, ptr %0, i64 520
  %40 = load i64, ptr %39, align 8
  %.not.i = icmp ult i64 %.02839.i, %40
  br i1 %.not.i, label %41, label %ole2_read_block.exit

41:                                               ; preds = %38
  %42 = icmp ugt i64 %.02740.i, %40
  br i1 %42, label %43, label %46

43:                                               ; preds = %41
  tail call void @llvm.memset.p0.i64(ptr noundef nonnull align 1 dereferenceable(1) %1, i8 0, i64 %24, i1 false)
  %44 = load i64, ptr %39, align 8
  %45 = sub i64 %44, %.02839.i
  br label %46

46:                                               ; preds = %43, %41
  %.029.i = phi i64 [ %45, %43 ], [ %24, %41 ]
  %47 = getelementptr inbounds i8, ptr %0, i64 544
  %48 = load ptr, ptr %47, align 8
  %49 = getelementptr inbounds i8, ptr %48, i64 104
  %50 = load ptr, ptr %49, align 8
  %51 = tail call ptr %50(ptr noundef %48, i64 noundef %.02839.i, i64 noundef %.029.i, i32 noundef 0) #21
  %.not36.i = icmp eq ptr %51, null
  br i1 %.not36.i, label %ole2_read_block.exit, label %52

52:                                               ; preds = %46
  tail call void @llvm.memcpy.p0.p0.i64(ptr align 1 %1, ptr nonnull align 1 %51, i64 %.029.i, i1 false)
  br label %ole2_read_block.exit

ole2_read_block.exit:                             ; preds = %52, %46, %38, %32, %._crit_edge, %3, %9
  %.015 = phi i1 [ false, %9 ], [ false, %3 ], [ true, %52 ], [ false, %._crit_edge ], [ false, %38 ], [ false, %32 ], [ false, %46 ]
  ret i1 %.015
}